target datalayout = "e-m:e-p270:32:32-p271:32:32-p272:64:64-i64:64-i128:128-f80:128-n8:16:32:64-S128"
target triple = "x86_64-pc-linux-gnu"

%"class.std::__cxx11::basic_string" = type { %"struct.std::__cxx11::basic_string<char>::_Alloc_hider", i64, %union.anon }
%"struct.std::__cxx11::basic_string<char>::_Alloc_hider" = type { ptr }
%union.anon = type { i64, [8 x i8] }
%"class.opencc::Config" = type { ptr, ptr }
%"class.opencc::(anonymous namespace)::ConfigInternal" = type { %"class.std::__cxx11::basic_string", %"class.std::unordered_map" }
%"class.std::unordered_map" = type { %"class.std::_Hashtable" }
%"class.std::_Hashtable" = type { ptr, i64, %"struct.std::__detail::_Hash_node_base", i64, %"struct.std::__detail::_Prime_rehash_policy", ptr }
%"struct.std::__detail::_Hash_node_base" = type { ptr }
%"struct.std::__detail::_Prime_rehash_policy" = type { float, i64 }

@_ZTVN6opencc6ConfigE = unnamed_addr constant { [4 x ptr] } { [4 x ptr] [ptr null, ptr @_ZTIN6opencc6ConfigE, ptr @_ZN6opencc6ConfigD1Ev, ptr @_ZN6opencc6ConfigD0Ev] }, align 8

; Function Attrs: mustprogress nounwind uwtable
define linkonce_odr void @_ZNSt15__new_allocatorINSt8__detail10_Hash_nodeISt4pairIKNSt7__cxx1112basic_stringIcSt11char_traitsIcESaIcEEESt13unordered_mapIS8_SA_IS8_St10shared_ptrIN6opencc4DictEESt4hashIS8_ESt8equal_toIS8_ESaIS2_IS9_SE_EEESG_SI_SaIS2_IS9_SL_EEEELb1EEEEC2Ev(ptr noundef nonnull align 1 dereferenceable(1) %0) unnamed_addr #7 comdat align 2 {
  %2 = alloca ptr, align 8
  store ptr %0, ptr %2, align 8
  ret void
}

; Function Attrs: mustprogress nounwind uwtable
define linkonce_odr void @_ZNSaINSt8__detail10_Hash_nodeISt4pairIKNSt7__cxx1112basic_stringIcSt11char_traitsIcESaIcEEESt13unordered_mapIS7_S9_IS7_St10shared_ptrIN6opencc4DictEESt4hashIS7_ESt8equal_toIS7_ESaIS1_IS8_SD_EEESF_SH_SaIS1_IS8_SK_EEEELb1EEEEC2Ev(ptr noundef nonnull align 1 dereferenceable(1) %0) unnamed_addr #7 comdat align 2 {
  %2 = alloca ptr, align 8
  store ptr %0, ptr %2, align 8
  %3 = load ptr, ptr %2, align 8
  call void @_ZNSt15__new_allocatorINSt8__detail10_Hash_nodeISt4pairIKNSt7__cxx1112basic_stringIcSt11char_traitsIcESaIcEEESt13unordered_mapIS8_SA_IS8_St10shared_ptrIN6opencc4DictEESt4hashIS8_ESt8equal_toIS8_ESaIS2_IS9_SE_EEESG_SI_SaIS2_IS9_SL_EEEELb1EEEEC2Ev(ptr noundef nonnull align 1 dereferenceable(1) %3) #3
  ret void
}

; Function Attrs: mustprogress nounwind uwtable
define linkonce_odr void @_ZNSt8__detail21_Hashtable_ebo_helperILi1ESt4hashINSt7__cxx1112basic_stringIcSt11char_traitsIcESaIcEEEELb1EEC2Ev(ptr noundef nonnull align 1 dereferenceable(1) %0) unnamed_addr #7 comdat align 2 {
  %2 = alloca ptr, align 8
  store ptr %0, ptr %2, align 8
  ret void
}

; Function Attrs: mustprogress nounwind uwtable
define linkonce_odr void @_ZNSt8__detail21_Hashtable_ebo_helperILi0ESaINS_10_Hash_nodeISt4pairIKNSt7__cxx1112basic_stringIcSt11char_traitsIcESaIcEEESt13unordered_mapIS8_SA_IS8_St10shared_ptrIN6opencc4DictEESt4hashIS8_ESt8equal_toIS8_ESaIS2_IS9_SE_EEESG_SI_SaIS2_IS9_SL_EEEELb1EEEELb1EEC2Ev(ptr noundef nonnull align 1 dereferenceable(1) %0) unnamed_addr #7 comdat align 2 {
  %2 = alloca ptr, align 8
  store ptr %0, ptr %2, align 8
  %3 = load ptr, ptr %2, align 8
  call void @_ZNSaINSt8__detail10_Hash_nodeISt4pairIKNSt7__cxx1112basic_stringIcSt11char_traitsIcESaIcEEESt13unordered_mapIS7_S9_IS7_St10shared_ptrIN6opencc4DictEESt4hashIS7_ESt8equal_toIS7_ESaIS1_IS8_SD_EEESF_SH_SaIS1_IS8_SK_EEEELb1EEEEC2Ev(ptr noundef nonnull align 1 dereferenceable(1) %3) #3
  ret void
}

; Function Attrs: mustprogress nounwind uwtable
define linkonce_odr void @_ZNSt8__detail21_Hashtable_ebo_helperILi0ESt8equal_toINSt7__cxx1112basic_stringIcSt11char_traitsIcESaIcEEEELb1EEC2Ev(ptr noundef nonnull align 1 dereferenceable(1) %0) unnamed_addr #7 comdat align 2 {
  %2 = alloca ptr, align 8
  store ptr %0, ptr %2, align 8
  ret void
}

; Function Attrs: mustprogress nounwind uwtable
define linkonce_odr void @_ZNSt8__detail15_Hash_code_baseINSt7__cxx1112basic_stringIcSt11char_traitsIcESaIcEEESt4pairIKS6_St13unordered_mapIS6_S9_IS6_St10shared_ptrIN6opencc4DictEESt4hashIS6_ESt8equal_toIS6_ESaIS7_IS8_SD_EEESF_SH_SaIS7_IS8_SK_EEEENS_10_Select1stESF_NS_18_Mod_range_hashingENS_20_Default_ranged_hashELb1EEC2Ev(ptr noundef nonnull align 1 dereferenceable(1) %0) unnamed_addr #7 comdat align 2 {
  %2 = alloca ptr, align 8
  store ptr %0, ptr %2, align 8
  %3 = load ptr, ptr %2, align 8
  call void @_ZNSt8__detail21_Hashtable_ebo_helperILi1ESt4hashINSt7__cxx1112basic_stringIcSt11char_traitsIcESaIcEEEELb1EEC2Ev(ptr noundef nonnull align 1 dereferenceable(1) %3) #3
  ret void
}

; Function Attrs: mustprogress nounwind uwtable
define linkonce_odr void @_ZNSt8__detail20_Prime_rehash_policyC2Ef(ptr noundef nonnull align 8 dereferenceable(16) %0, float noundef %1) unnamed_addr #7 comdat align 2 {
  %3 = alloca ptr, align 8
  %4 = alloca float, align 4
  store ptr %0, ptr %3, align 8
  store float %1, ptr %4, align 4
  %5 = load ptr, ptr %3, align 8
  %6 = getelementptr inbounds %"struct.std::__detail::_Prime_rehash_policy", ptr %5, i32 0, i32 0
  %7 = load float, ptr %4, align 4
  store float %7, ptr %6, align 8
  %8 = getelementptr inbounds %"struct.std::__detail::_Prime_rehash_policy", ptr %5, i32 0, i32 1
  store i64 0, ptr %8, align 8
  ret void
}

; Function Attrs: mustprogress nounwind uwtable
define linkonce_odr void @_ZNSt8__detail15_Hash_node_baseC2Ev(ptr noundef nonnull align 8 dereferenceable(8) %0) unnamed_addr #7 comdat align 2 {
  %2 = alloca ptr, align 8
  store ptr %0, ptr %2, align 8
  %3 = load ptr, ptr %2, align 8
  %4 = getelementptr inbounds %"struct.std::__detail::_Hash_node_base", ptr %3, i32 0, i32 0
  store ptr null, ptr %4, align 8
  ret void
}

; Function Attrs: mustprogress nounwind uwtable
define linkonce_odr void @_ZNSt8__detail16_Hashtable_allocISaINS_10_Hash_nodeISt4pairIKNSt7__cxx1112basic_stringIcSt11char_traitsIcESaIcEEESt13unordered_mapIS8_SA_IS8_St10shared_ptrIN6opencc4DictEESt4hashIS8_ESt8equal_toIS8_ESaIS2_IS9_SE_EEESG_SI_SaIS2_IS9_SL_EEEELb1EEEEEC2Ev(ptr noundef nonnull align 1 dereferenceable(1) %0) unnamed_addr #7 comdat align 2 {
  %2 = alloca ptr, align 8
  store ptr %0, ptr %2, align 8
  %3 = load ptr, ptr %2, align 8
  call void @_ZNSt8__detail21_Hashtable_ebo_helperILi0ESaINS_10_Hash_nodeISt4pairIKNSt7__cxx1112basic_stringIcSt11char_traitsIcESaIcEEESt13unordered_mapIS8_SA_IS8_St10shared_ptrIN6opencc4DictEESt4hashIS8_ESt8equal_toIS8_ESaIS2_IS9_SE_EEESG_SI_SaIS2_IS9_SL_EEEELb1EEEELb1EEC2Ev(ptr noundef nonnull align 1 dereferenceable(1) %3) #3
  ret void
}

; Function Attrs: mustprogress nounwind uwtable
define linkonce_odr void @_ZNSt8__detail15_Hashtable_baseINSt7__cxx1112basic_stringIcSt11char_traitsIcESaIcEEESt4pairIKS6_St13unordered_mapIS6_S9_IS6_St10shared_ptrIN6opencc4DictEESt4hashIS6_ESt8equal_toIS6_ESaIS7_IS8_SD_EEESF_SH_SaIS7_IS8_SK_EEEENS_10_Select1stESH_SF_NS_18_Mod_range_hashingENS_20_Default_ranged_hashENS_17_Hashtable_traitsILb1ELb0ELb1EEEEC2Ev(ptr noundef nonnull align 1 dereferenceable(1) %0) unnamed_addr #7 comdat align 2 {
  %2 = alloca ptr, align 8
  store ptr %0, ptr %2, align 8
  %3 = load ptr, ptr %2, align 8
  call void @_ZNSt8__detail15_Hash_code_baseINSt7__cxx1112basic_stringIcSt11char_traitsIcESaIcEEESt4pairIKS6_St13unordered_mapIS6_S9_IS6_St10shared_ptrIN6opencc4DictEESt4hashIS6_ESt8equal_toIS6_ESaIS7_IS8_SD_EEESF_SH_SaIS7_IS8_SK_EEEENS_10_Select1stESF_NS_18_Mod_range_hashingENS_20_Default_ranged_hashELb1EEC2Ev(ptr noundef nonnull align 1 dereferenceable(1) %3) #3
  call void @_ZNSt8__detail21_Hashtable_ebo_helperILi0ESt8equal_toINSt7__cxx1112basic_stringIcSt11char_traitsIcESaIcEEEELb1EEC2Ev(ptr noundef nonnull align 1 dereferenceable(1) %3) #3
  ret void
}

; Function Attrs: mustprogress nounwind uwtable
define linkonce_odr void @_ZNSt10_HashtableINSt7__cxx1112basic_stringIcSt11char_traitsIcESaIcEEESt4pairIKS5_St13unordered_mapIS5_S8_IS5_St10shared_ptrIN6opencc4DictEESt4hashIS5_ESt8equal_toIS5_ESaIS6_IS7_SC_EEESE_SG_SaIS6_IS7_SJ_EEEESaISN_ENSt8__detail10_Select1stESG_SE_NSP_18_Mod_range_hashingENSP_20_Default_ranged_hashENSP_20_Prime_rehash_policyENSP_17_Hashtable_traitsILb1ELb0ELb1EEEEC2Ev(ptr noundef nonnull align 8 dereferenceable(56) %0) unnamed_addr #7 comdat align 2 {
  %2 = alloca ptr, align 8
  store ptr %0, ptr %2, align 8
  %3 = load ptr, ptr %2, align 8
  call void @_ZNSt8__detail15_Hashtable_baseINSt7__cxx1112basic_stringIcSt11char_traitsIcESaIcEEESt4pairIKS6_St13unordered_mapIS6_S9_IS6_St10shared_ptrIN6opencc4DictEESt4hashIS6_ESt8equal_toIS6_ESaIS7_IS8_SD_EEESF_SH_SaIS7_IS8_SK_EEEENS_10_Select1stESH_SF_NS_18_Mod_range_hashingENS_20_Default_ranged_hashENS_17_Hashtable_traitsILb1ELb0ELb1EEEEC2Ev(ptr noundef nonnull align 1 dereferenceable(1) %3) #3
  call void @_ZNSt8__detail16_Hashtable_allocISaINS_10_Hash_nodeISt4pairIKNSt7__cxx1112basic_stringIcSt11char_traitsIcESaIcEEESt13unordered_mapIS8_SA_IS8_St10shared_ptrIN6opencc4DictEESt4hashIS8_ESt8equal_toIS8_ESaIS2_IS9_SE_EEESG_SI_SaIS2_IS9_SL_EEEELb1EEEEEC2Ev(ptr noundef nonnull align 1 dereferenceable(1) %3) #3
  %4 = getelementptr inbounds %"class.std::_Hashtable", ptr %3, i32 0, i32 0
  %5 = getelementptr inbounds %"class.std::_Hashtable", ptr %3, i32 0, i32 5
  store ptr %5, ptr %4, align 8
  %6 = getelementptr inbounds %"class.std::_Hashtable", ptr %3, i32 0, i32 1
  store i64 1, ptr %6, align 8
  %7 = getelementptr inbounds %"class.std::_Hashtable", ptr %3, i32 0, i32 2
  call void @_ZNSt8__detail15_Hash_node_baseC2Ev(ptr noundef nonnull align 8 dereferenceable(8) %7) #3
  %8 = getelementptr inbounds %"class.std::_Hashtable", ptr %3, i32 0, i32 3
  store i64 0, ptr %8, align 8
  %9 = getelementptr inbounds %"class.std::_Hashtable", ptr %3, i32 0, i32 4
  call void @_ZNSt8__detail20_Prime_rehash_policyC2Ef(ptr noundef nonnull align 8 dereferenceable(16) %9, float noundef 1.000000e+00) #3
  %10 = getelementptr inbounds %"class.std::_Hashtable", ptr %3, i32 0, i32 5
  store ptr null, ptr %10, align 8
  ret void
}

; Function Attrs: mustprogress nounwind uwtable
define linkonce_odr void @_ZNSt13unordered_mapINSt7__cxx1112basic_stringIcSt11char_traitsIcESaIcEEES_IS5_S_IS5_St10shared_ptrIN6opencc4DictEESt4hashIS5_ESt8equal_toIS5_ESaISt4pairIKS5_S9_EEESB_SD_SaISE_ISF_SI_EEESB_SD_SaISE_ISF_SL_EEEC2Ev(ptr noundef nonnull align 8 dereferenceable(56) %0) unnamed_addr #7 comdat align 2 {
  %2 = alloca ptr, align 8
  store ptr %0, ptr %2, align 8
  %3 = load ptr, ptr %2, align 8
  %4 = getelementptr inbounds %"class.std::unordered_map", ptr %3, i32 0, i32 0
  call void @_ZNSt10_HashtableINSt7__cxx1112basic_stringIcSt11char_traitsIcESaIcEEESt4pairIKS5_St13unordered_mapIS5_S8_IS5_St10shared_ptrIN6opencc4DictEESt4hashIS5_ESt8equal_toIS5_ESaIS6_IS7_SC_EEESE_SG_SaIS6_IS7_SJ_EEEESaISN_ENSt8__detail10_Select1stESG_SE_NSP_18_Mod_range_hashingENSP_20_Default_ranged_hashENSP_20_Prime_rehash_policyENSP_17_Hashtable_traitsILb1ELb0ELb1EEEEC2Ev(ptr noundef nonnull align 8 dereferenceable(56) %4) #3
  ret void
}

; Function Attrs: mustprogress nounwind uwtable
define internal void @_ZN6opencc12_GLOBAL__N_114ConfigInternalC2Ev(ptr noundef nonnull align 8 dereferenceable(88) %0) unnamed_addr #7 align 2 {
  %2 = alloca ptr, align 8
  store ptr %0, ptr %2, align 8
  %3 = load ptr, ptr %2, align 8
  %4 = getelementptr inbounds %"class.opencc::(anonymous namespace)::ConfigInternal", ptr %3, i32 0, i32 0
  call void @_ZNSt7__cxx1112basic_stringIcSt11char_traitsIcESaIcEEC1Ev(ptr noundef nonnull align 8 dereferenceable(32) %4) #3
  %5 = getelementptr inbounds %"class.opencc::(anonymous namespace)::ConfigInternal", ptr %3, i32 0, i32 1
  call void @_ZNSt13unordered_mapINSt7__cxx1112basic_stringIcSt11char_traitsIcESaIcEEES_IS5_S_IS5_St10shared_ptrIN6opencc4DictEESt4hashIS5_ESt8equal_toIS5_ESaISt4pairIKS5_S9_EEESB_SD_SaISE_ISF_SI_EEESB_SD_SaISE_ISF_SL_EEEC2Ev(ptr noundef nonnull align 8 dereferenceable(56) %5) #3
  ret void
}

; Function Attrs: mustprogress uwtable
define void @_ZN6opencc6ConfigC2Ev(ptr noundef nonnull align 8 dereferenceable(16) %0) unnamed_addr #4 align 2 {
  %2 = alloca ptr, align 8
  store ptr %0, ptr %2, align 8
  %3 = load ptr, ptr %2, align 8
  store ptr getelementptr inbounds inrange(-16, 16) ({ [4 x ptr] }, ptr @_ZTVN6opencc6ConfigE, i32 0, i32 0, i32 2), ptr %3, align 8
  %4 = getelementptr inbounds %"class.opencc::Config", ptr %3, i32 0, i32 1
  %5 = call noalias noundef nonnull ptr @_Znwm(i64 noundef 88) #16
  call void @llvm.memset.p0.i64(ptr align 16 %5, i8 0, i64 88, i1 false)
  call void @_ZN6opencc12_GLOBAL__N_114ConfigInternalC2Ev(ptr noundef nonnull align 8 dereferenceable(88) %5) #3
  store ptr %5, ptr %4, align 8
  ret void
}