; Function Attrs: mustprogress uwtable
define void @_ZN6opencc6ConfigC2Ev(ptr nocapture noundef nonnull writeonly align 8 dereferenceable(16) %0) unnamed_addr #3 align 2 {
  store ptr getelementptr inbounds inrange(-16, 16) ({ [4 x ptr] }, ptr @_ZTVN6opencc6ConfigE, i64 0, i32 0, i64 2), ptr %0, align 8
  %2 = getelementptr inbounds i8, ptr %0, i64 8
  %3 = tail call noalias noundef nonnull dereferenceable(88) ptr @_Znwm(i64 noundef 88) #22
  tail call void @llvm.memset.p0.i64(ptr noundef nonnull align 16 dereferenceable(88) %3, i8 0, i64 88, i1 false)
  tail call void @_ZNSt7__cxx1112basic_stringIcSt11char_traitsIcESaIcEEC1Ev(ptr noundef nonnull align 8 dereferenceable(32) %3) #23
  %4 = getelementptr inbounds i8, ptr %3, i64 32
  %5 = getelementptr inbounds i8, ptr %3, i64 80
  store ptr %5, ptr %4, align 8
  %6 = getelementptr inbounds i8, ptr %3, i64 40
  store i64 1, ptr %6, align 8
  %7 = getelementptr inbounds i8, ptr %3, i64 48
  %8 = getelementptr inbounds i8, ptr %3, i64 64
  tail call void @llvm.memset.p0.i64(ptr noundef nonnull align 8 dereferenceable(16) %7, i8 0, i64 16, i1 false)
  store float 1.000000e+00, ptr %8, align 8
  %9 = getelementptr inbounds i8, ptr %3, i64 72
  tail call void @llvm.memset.p0.i64(ptr noundef nonnull align 8 dereferenceable(16) %9, i8 0, i64 16, i1 false)
  store ptr %3, ptr %2, align 8
  ret void
}